(lp0
ccopy_reg
_reconstructor
p1
(cautomoveis
automoveisReg
p2
c__builtin__
tuple
p3
(S'10-20-30'
p4
S'a'
p5
S'a'
p6
S'a'
p7
S'a'
p8
S'a'
p9
S'a'
p10
tp11
tp12
Rp13
ccollections
OrderedDict
p14
((lp15
(lp16
S'matricula'
p17
ag4
aa(lp18
S'marca'
p19
ag5
aa(lp20
S'modelo'
p21
ag6
aa(lp22
S'cor'
p23
ag7
aa(lp24
S'cilindrada'
p25
ag8
aa(lp26
S'anodeaquisicao'
p27
ag9
aa(lp28
S'valordealuguer'
p29
ag10
aatp30
Rp31
ba.